; ModuleID = '63/1127.c'
source_filename = "63/1127.c"
target datalayout = "e-m:e-p270:32:32-p271:32:32-p272:64:64-i64:64-f80:128-n8:16:32:64-S128"
target triple = "x86_64-pc-linux-gnu"

@.str = private unnamed_addr constant [5 x i8] c"%d%d\00", align 1
@.str.1 = private unnamed_addr constant [3 x i8] c"%d\00", align 1
@.str.2 = private unnamed_addr constant [4 x i8] c"%d \00", align 1
@.str.3 = private unnamed_addr constant [4 x i8] c"%d\0A\00", align 1

; Function Attrs: noinline nounwind uwtable
define dso_local i32 @main(i32 %0, i8** %1) #0 {
  %3 = alloca i32, align 4
  %4 = alloca i32, align 4
  %5 = alloca i8**, align 8
  %6 = alloca i32, align 4
  %7 = alloca i32, align 4
  %8 = alloca i32, align 4
  %9 = alloca i32, align 4
  %10 = alloca [101 x [101 x i32]], align 16
  %11 = alloca [101 x [101 x i32]], align 16
  %12 = alloca [101 x [101 x i32]], align 16
  %13 = alloca i32, align 4
  %14 = alloca i32, align 4
  %15 = alloca i32, align 4
  store i32 0, i32* %3, align 4
  store i32 %0, i32* %4, align 4
  store i8** %1, i8*** %5, align 8
  %16 = call i32 (i8*, ...) @__isoc99_scanf(i8* getelementptr inbounds ([5 x i8], [5 x i8]* @.str, i64 0, i64 0), i32* %6, i32* %7)
  store i32 0, i32* %13, align 4
  br label %17

17:                                               ; preds = %38, %2
  %18 = load i32, i32* %13, align 4
  %19 = load i32, i32* %6, align 4
  %20 = icmp slt i32 %18, %19
  br i1 %20, label %21, label %41

21:                                               ; preds = %17
  store i32 0, i32* %14, align 4
  br label %22

22:                                               ; preds = %34, %21
  %23 = load i32, i32* %14, align 4
  %24 = load i32, i32* %7, align 4
  %25 = icmp slt i32 %23, %24
  br i1 %25, label %26, label %37

26:                                               ; preds = %22
  %27 = load i32, i32* %13, align 4
  %28 = sext i32 %27 to i64
  %29 = getelementptr inbounds [101 x [101 x i32]], [101 x [101 x i32]]* %10, i64 0, i64 %28
  %30 = load i32, i32* %14, align 4
  %31 = sext i32 %30 to i64
  %32 = getelementptr inbounds [101 x i32], [101 x i32]* %29, i64 0, i64 %31
  %33 = call i32 (i8*, ...) @__isoc99_scanf(i8* getelementptr inbounds ([3 x i8], [3 x i8]* @.str.1, i64 0, i64 0), i32* %32)
  br label %34

34:                                               ; preds = %26
  %35 = load i32, i32* %14, align 4
  %36 = add nsw i32 %35, 1
  store i32 %36, i32* %14, align 4
  br label %22

37:                                               ; preds = %22
  br label %38

38:                                               ; preds = %37
  %39 = load i32, i32* %13, align 4
  %40 = add nsw i32 %39, 1
  store i32 %40, i32* %13, align 4
  br label %17

41:                                               ; preds = %17
  %42 = call i32 (i8*, ...) @__isoc99_scanf(i8* getelementptr inbounds ([5 x i8], [5 x i8]* @.str, i64 0, i64 0), i32* %8, i32* %9)
  store i32 0, i32* %13, align 4
  br label %43

43:                                               ; preds = %64, %41
  %44 = load i32, i32* %13, align 4
  %45 = load i32, i32* %8, align 4
  %46 = icmp slt i32 %44, %45
  br i1 %46, label %47, label %67

47:                                               ; preds = %43
  store i32 0, i32* %14, align 4
  br label %48

48:                                               ; preds = %60, %47
  %49 = load i32, i32* %14, align 4
  %50 = load i32, i32* %9, align 4
  %51 = icmp slt i32 %49, %50
  br i1 %51, label %52, label %63

52:                                               ; preds = %48
  %53 = load i32, i32* %13, align 4
  %54 = sext i32 %53 to i64
  %55 = getelementptr inbounds [101 x [101 x i32]], [101 x [101 x i32]]* %11, i64 0, i64 %54
  %56 = load i32, i32* %14, align 4
  %57 = sext i32 %56 to i64
  %58 = getelementptr inbounds [101 x i32], [101 x i32]* %55, i64 0, i64 %57
  %59 = call i32 (i8*, ...) @__isoc99_scanf(i8* getelementptr inbounds ([3 x i8], [3 x i8]* @.str.1, i64 0, i64 0), i32* %58)
  br label %60

60:                                               ; preds = %52
  %61 = load i32, i32* %14, align 4
  %62 = add nsw i32 %61, 1
  store i32 %62, i32* %14, align 4
  br label %48

63:                                               ; preds = %48
  br label %64

64:                                               ; preds = %63
  %65 = load i32, i32* %13, align 4
  %66 = add nsw i32 %65, 1
  store i32 %66, i32* %13, align 4
  br label %43

67:                                               ; preds = %43
  store i32 0, i32* %13, align 4
  br label %68

68:                                               ; preds = %88, %67
  %69 = load i32, i32* %13, align 4
  %70 = load i32, i32* %6, align 4
  %71 = icmp slt i32 %69, %70
  br i1 %71, label %72, label %91

72:                                               ; preds = %68
  store i32 0, i32* %14, align 4
  br label %73

73:                                               ; preds = %84, %72
  %74 = load i32, i32* %14, align 4
  %75 = load i32, i32* %9, align 4
  %76 = icmp slt i32 %74, %75
  br i1 %76, label %77, label %87

77:                                               ; preds = %73
  %78 = load i32, i32* %13, align 4
  %79 = sext i32 %78 to i64
  %80 = getelementptr inbounds [101 x [101 x i32]], [101 x [101 x i32]]* %12, i64 0, i64 %79
  %81 = load i32, i32* %14, align 4
  %82 = sext i32 %81 to i64
  %83 = getelementptr inbounds [101 x i32], [101 x i32]* %80, i64 0, i64 %82
  store i32 0, i32* %83, align 4
  br label %84

84:                                               ; preds = %77
  %85 = load i32, i32* %14, align 4
  %86 = add nsw i32 %85, 1
  store i32 %86, i32* %14, align 4
  br label %73

87:                                               ; preds = %73
  br label %88

88:                                               ; preds = %87
  %89 = load i32, i32* %13, align 4
  %90 = add nsw i32 %89, 1
  store i32 %90, i32* %13, align 4
  br label %68

91:                                               ; preds = %68
  store i32 0, i32* %13, align 4
  br label %92

92:                                               ; preds = %138, %91
  %93 = load i32, i32* %13, align 4
  %94 = load i32, i32* %6, align 4
  %95 = icmp slt i32 %93, %94
  br i1 %95, label %96, label %141

96:                                               ; preds = %92
  store i32 0, i32* %14, align 4
  br label %97

97:                                               ; preds = %134, %96
  %98 = load i32, i32* %14, align 4
  %99 = load i32, i32* %9, align 4
  %100 = icmp slt i32 %98, %99
  br i1 %100, label %101, label %137

101:                                              ; preds = %97
  store i32 0, i32* %15, align 4
  br label %102

102:                                              ; preds = %130, %101
  %103 = load i32, i32* %15, align 4
  %104 = load i32, i32* %8, align 4
  %105 = icmp slt i32 %103, %104
  br i1 %105, label %106, label %133

106:                                              ; preds = %102
  %107 = load i32, i32* %13, align 4
  %108 = sext i32 %107 to i64
  %109 = getelementptr inbounds [101 x [101 x i32]], [101 x [101 x i32]]* %10, i64 0, i64 %108
  %110 = load i32, i32* %15, align 4
  %111 = sext i32 %110 to i64
  %112 = getelementptr inbounds [101 x i32], [101 x i32]* %109, i64 0, i64 %111
  %113 = load i32, i32* %112, align 4
  %114 = load i32, i32* %15, align 4
  %115 = sext i32 %114 to i64
  %116 = getelementptr inbounds [101 x [101 x i32]], [101 x [101 x i32]]* %11, i64 0, i64 %115
  %117 = load i32, i32* %14, align 4
  %118 = sext i32 %117 to i64
  %119 = getelementptr inbounds [101 x i32], [101 x i32]* %116, i64 0, i64 %118
  %120 = load i32, i32* %119, align 4
  %121 = mul nsw i32 %113, %120
  %122 = load i32, i32* %13, align 4
  %123 = sext i32 %122 to i64
  %124 = getelementptr inbounds [101 x [101 x i32]], [101 x [101 x i32]]* %12, i64 0, i64 %123
  %125 = load i32, i32* %14, align 4
  %126 = sext i32 %125 to i64
  %127 = getelementptr inbounds [101 x i32], [101 x i32]* %124, i64 0, i64 %126
  %128 = load i32, i32* %127, align 4
  %129 = add nsw i32 %128, %121
  store i32 %129, i32* %127, align 4
  br label %130

130:                                              ; preds = %106
  %131 = load i32, i32* %15, align 4
  %132 = add nsw i32 %131, 1
  store i32 %132, i32* %15, align 4
  br label %102

133:                                              ; preds = %102
  br label %134

134:                                              ; preds = %133
  %135 = load i32, i32* %14, align 4
  %136 = add nsw i32 %135, 1
  store i32 %136, i32* %14, align 4
  br label %97

137:                                              ; preds = %97
  br label %138

138:                                              ; preds = %137
  %139 = load i32, i32* %13, align 4
  %140 = add nsw i32 %139, 1
  store i32 %140, i32* %13, align 4
  br label %92

141:                                              ; preds = %92
  store i32 0, i32* %13, align 4
  br label %142

142:                                              ; preds = %173, %141
  %143 = load i32, i32* %13, align 4
  %144 = load i32, i32* %6, align 4
  %145 = icmp slt i32 %143, %144
  br i1 %145, label %146, label %176

146:                                              ; preds = %142
  store i32 0, i32* %14, align 4
  br label %147

147:                                              ; preds = %161, %146
  %148 = load i32, i32* %14, align 4
  %149 = load i32, i32* %9, align 4
  %150 = sub nsw i32 %149, 1
  %151 = icmp slt i32 %148, %150
  br i1 %151, label %152, label %164

152:                                              ; preds = %147
  %153 = load i32, i32* %13, align 4
  %154 = sext i32 %153 to i64
  %155 = getelementptr inbounds [101 x [101 x i32]], [101 x [101 x i32]]* %12, i64 0, i64 %154
  %156 = load i32, i32* %14, align 4
  %157 = sext i32 %156 to i64
  %158 = getelementptr inbounds [101 x i32], [101 x i32]* %155, i64 0, i64 %157
  %159 = load i32, i32* %158, align 4
  %160 = call i32 (i8*, ...) @printf(i8* getelementptr inbounds ([4 x i8], [4 x i8]* @.str.2, i64 0, i64 0), i32 %159)
  br label %161

161:                                              ; preds = %152
  %162 = load i32, i32* %14, align 4
  %163 = add nsw i32 %162, 1
  store i32 %163, i32* %14, align 4
  br label %147

164:                                              ; preds = %147
  %165 = load i32, i32* %13, align 4
  %166 = sext i32 %165 to i64
  %167 = getelementptr inbounds [101 x [101 x i32]], [101 x [101 x i32]]* %12, i64 0, i64 %166
  %168 = load i32, i32* %14, align 4
  %169 = sext i32 %168 to i64
  %170 = getelementptr inbounds [101 x i32], [101 x i32]* %167, i64 0, i64 %169
  %171 = load i32, i32* %170, align 4
  %172 = call i32 (i8*, ...) @printf(i8* getelementptr inbounds ([4 x i8], [4 x i8]* @.str.3, i64 0, i64 0), i32 %171)
  br label %173

173:                                              ; preds = %164
  %174 = load i32, i32* %13, align 4
  %175 = add nsw i32 %174, 1
  store i32 %175, i32* %13, align 4
  br label %142

176:                                              ; preds = %142
  ret i32 0
}

declare dso_local i32 @__isoc99_scanf(i8*, ...) #1

declare dso_local i32 @printf(i8*, ...) #1


!llvm.module.flags = !{!0}
!llvm.ident = !{!1}

!0 = !{i32 1, !"wchar_size", i32 4}
!1 = !{!"clang version 10.0.0-4ubuntu1 "}
